target datalayout = "e-m:e-p270:32:32-p271:32:32-p272:64:64-i64:64-i128:128-f80:128-n8:16:32:64-S128"
target triple = "x86_64-pc-linux-gnu"

@.str.23 = private unnamed_addr constant [8 x i8] c"<g id=\22\00", align 1
@.str.24 = private unnamed_addr constant [12 x i8] c"\22 class=\22%s\00", align 1
@.str.25 = private unnamed_addr constant [6 x i8] c"class\00", align 1

; Function Attrs: nounwind uwtable
define internal void @svg_print_id_class(ptr noundef %0, ptr noundef %1, ptr noundef %2, ptr noundef %3, ptr noundef %4) #0 {
  %6 = alloca ptr, align 8
  %7 = alloca ptr, align 8
  %8 = alloca ptr, align 8
  %9 = alloca ptr, align 8
  %10 = alloca ptr, align 8
  %11 = alloca ptr, align 8
  store ptr %0, ptr %6, align 8, !tbaa !3
  store ptr %1, ptr %7, align 8, !tbaa !46
  store ptr %2, ptr %8, align 8, !tbaa !46
  store ptr %3, ptr %9, align 8, !tbaa !46
  store ptr %4, ptr %10, align 8, !tbaa !72
  call void @llvm.lifetime.start.p0(i64 8, ptr %11) #9
  %12 = load ptr, ptr %6, align 8, !tbaa !3
  %13 = call i32 @gvputs(ptr noundef %12, ptr noundef @.str.23)
  %14 = load ptr, ptr %6, align 8, !tbaa !3
  %15 = load ptr, ptr %7, align 8, !tbaa !46
  %16 = call i32 @gvputs_xml(ptr noundef %14, ptr noundef %15)
  %17 = load ptr, ptr %8, align 8, !tbaa !46
  %18 = icmp ne ptr %17, null
  br i1 %18, label %19, label %25

19:                                               ; preds = %5
  %20 = load ptr, ptr %6, align 8, !tbaa !3
  %21 = call i32 @gvputc(ptr noundef %20, i32 noundef 95)
  %22 = load ptr, ptr %6, align 8, !tbaa !3
  %23 = load ptr, ptr %8, align 8, !tbaa !46
  %24 = call i32 @gvputs_xml(ptr noundef %22, ptr noundef %23)
  br label %25

25:                                               ; preds = %19, %5
  %26 = load ptr, ptr %6, align 8, !tbaa !3
  %27 = load ptr, ptr %9, align 8, !tbaa !46
  call void (ptr, ptr, ...) @gvprintf(ptr noundef %26, ptr noundef @.str.24, ptr noundef %27)
  %28 = load ptr, ptr %10, align 8, !tbaa !72
  %29 = call ptr @agget(ptr noundef %28, ptr noundef @.str.25)
  store ptr %29, ptr %11, align 8, !tbaa !46
  %30 = icmp ne ptr %29, null
  br i1 %30, label %31, label %42

31:                                               ; preds = %25
  %32 = load ptr, ptr %11, align 8, !tbaa !46
  %33 = load i8, ptr %32, align 1, !tbaa !47
  %34 = sext i8 %33 to i32
  %35 = icmp ne i32 %34, 0
  br i1 %35, label %36, label %42

36:                                               ; preds = %31
  %37 = load ptr, ptr %6, align 8, !tbaa !3
  %38 = call i32 @gvputc(ptr noundef %37, i32 noundef 32)
  %39 = load ptr, ptr %6, align 8, !tbaa !3
  %40 = load ptr, ptr %11, align 8, !tbaa !46
  %41 = call i32 @gvputs_xml(ptr noundef %39, ptr noundef %40)
  br label %42

42:                                               ; preds = %36, %31, %25
  %43 = load ptr, ptr %6, align 8, !tbaa !3
  %44 = call i32 @gvputc(ptr noundef %43, i32 noundef 34)
  call void @llvm.lifetime.end.p0(i64 8, ptr %11) #9
  ret void
}