; Function Attrs: nounwind uwtable
define internal fastcc void @svg_print_id_class(ptr noundef %0, ptr noundef %1, ptr noundef %2, ptr noundef %3, ptr noundef %4) unnamed_addr #0 {
  %6 = tail call i32 @gvputs(ptr noundef %0, ptr noundef nonnull @.str.23) #11
  %7 = tail call i32 @gvputs_xml(ptr noundef %0, ptr noundef %1) #11
  %.not = icmp eq ptr %2, null
  br i1 %.not, label %11, label %8

8:                                                ; preds = %5
  %9 = tail call i32 @gvputc(ptr noundef %0, i32 noundef 95) #11
  %10 = tail call i32 @gvputs_xml(ptr noundef %0, ptr noundef nonnull %2) #11
  br label %11

11:                                               ; preds = %8, %5
  tail call void (ptr, ptr, ...) @gvprintf(ptr noundef %0, ptr noundef nonnull @.str.24, ptr noundef %3) #11
  %12 = tail call ptr @agget(ptr noundef %4, ptr noundef nonnull @.str.25) #11
  %.not16 = icmp eq ptr %12, null
  br i1 %.not16, label %18, label %13

13:                                               ; preds = %11
  %14 = load i8, ptr %12, align 1, !tbaa !46
  %.not17 = icmp eq i8 %14, 0
  br i1 %.not17, label %18, label %15

15:                                               ; preds = %13
  %16 = tail call i32 @gvputc(ptr noundef %0, i32 noundef 32) #11
  %17 = tail call i32 @gvputs_xml(ptr noundef %0, ptr noundef nonnull %12) #11
  br label %18

18:                                               ; preds = %15, %13, %11
  %19 = tail call i32 @gvputc(ptr noundef %0, i32 noundef 34) #11
  ret void
}